target datalayout = "e-m:e-p270:32:32-p271:32:32-p272:64:64-i64:64-i128:128-f80:128-n8:16:32:64-S128"
target triple = "x86_64-pc-linux-gnu"

%struct.RString = type { %struct.RBasic, i64, %union.anon }
%struct.RBasic = type { i64, i64 }
%union.anon = type { %struct.anon }
%struct.anon = type { ptr, %union.anon.0 }
%union.anon.0 = type { i64 }

@.str.37 = private unnamed_addr constant [5 x i8] c"zone\00", align 1
@.str.39 = private unnamed_addr constant [7 x i8] c"offset\00", align 1
@.str.50 = private unnamed_addr constant [3 x i8] c"**\00", align 1
@.str.52 = private unnamed_addr constant [5 x i8] c"hour\00", align 1
@.str.54 = private unnamed_addr constant [4 x i8] c"min\00", align 1
@.str.56 = private unnamed_addr constant [4 x i8] c"sec\00", align 1
@.str.58 = private unnamed_addr constant [13 x i8] c"sec_fraction\00", align 1
@sec_fraction.rbimpl_id = internal global i64 0, align 8
@iso8601_ext_time_cb.rbimpl_id = internal global i64 0, align 8
@iso8601_ext_time_cb.rbimpl_id.171 = internal global i64 0, align 8
@iso8601_ext_time_cb.rbimpl_id.172 = internal global i64 0, align 8
@iso8601_ext_time_cb.rbimpl_id.173 = internal global i64 0, align 8
@iso8601_ext_time_cb.rbimpl_id.174 = internal global i64 0, align 8
@iso8601_ext_time_cb.rbimpl_id.175 = internal global i64 0, align 8

; Function Attrs: inlinehint nounwind sspstrong willreturn memory(none) uwtable
define internal i64 @RB_INT2FIX(i64 noundef %0) #4 {
  %2 = alloca i64, align 8
  %3 = alloca i64, align 8
  %4 = alloca i64, align 8
  %5 = alloca i64, align 8
  %6 = alloca i64, align 8
  %7 = alloca i64, align 8
  store i64 %0, ptr %2, align 8, !tbaa !6
  call void @llvm.lifetime.start.p0(i64 8, ptr %3) #21
  %8 = load i64, ptr %2, align 8, !tbaa !6
  store i64 %8, ptr %3, align 8, !tbaa !6
  call void @llvm.lifetime.start.p0(i64 8, ptr %4) #21
  %9 = load i64, ptr %3, align 8, !tbaa !6
  %10 = shl i64 %9, 1
  %11 = add i64 %10, 1
  store i64 %11, ptr %4, align 8, !tbaa !6
  call void @llvm.lifetime.start.p0(i64 8, ptr %5) #21
  %12 = load i64, ptr %4, align 8, !tbaa !6
  store i64 %12, ptr %5, align 8, !tbaa !6
  call void @llvm.lifetime.start.p0(i64 8, ptr %6) #21
  %13 = load i64, ptr %5, align 8, !tbaa !6
  store i64 %13, ptr %6, align 8, !tbaa !6
  call void @llvm.lifetime.start.p0(i64 8, ptr %7) #21
  %14 = load i64, ptr %6, align 8, !tbaa !6
  store i64 %14, ptr %7, align 8, !tbaa !6
  %15 = load i64, ptr %7, align 8, !tbaa !6
  call void @llvm.lifetime.end.p0(i64 8, ptr %7) #21
  call void @llvm.lifetime.end.p0(i64 8, ptr %6) #21
  call void @llvm.lifetime.end.p0(i64 8, ptr %5) #21
  call void @llvm.lifetime.end.p0(i64 8, ptr %4) #21
  call void @llvm.lifetime.end.p0(i64 8, ptr %3) #21
  ret i64 %15
}

; Function Attrs: inlinehint nounwind sspstrong uwtable
define internal i64 @rb_long2num_inline(i64 noundef %0) #3 {
  %2 = alloca i64, align 8
  %3 = alloca i64, align 8
  store i64 %0, ptr %3, align 8, !tbaa !6
  %4 = load i64, ptr %3, align 8, !tbaa !6
  %5 = icmp slt i64 %4, 4611686018427387904
  br i1 %5, label %6, label %12

6:                                                ; preds = %1
  %7 = load i64, ptr %3, align 8, !tbaa !6
  %8 = icmp sge i64 %7, -4611686018427387904
  br i1 %8, label %9, label %12

9:                                                ; preds = %6
  %10 = load i64, ptr %3, align 8, !tbaa !6
  %11 = call i64 @RB_INT2FIX(i64 noundef %10) #23
  store i64 %11, ptr %2, align 8
  br label %15

12:                                               ; preds = %6, %1
  %13 = load i64, ptr %3, align 8, !tbaa !6
  %14 = call i64 @rb_int2big(i64 noundef %13)
  store i64 %14, ptr %2, align 8
  br label %15

15:                                               ; preds = %12, %9
  %16 = load i64, ptr %2, align 8
  ret i64 %16
}

; Function Attrs: inlinehint nounwind sspstrong willreturn memory(read) uwtable
define internal i64 @RSTRING_LEN(i64 noundef %0) #2 {
  %2 = alloca i64, align 8
  store i64 %0, ptr %2, align 8, !tbaa !6
  %3 = load i64, ptr %2, align 8, !tbaa !6
  %4 = inttoptr i64 %3 to ptr
  %5 = getelementptr inbounds nuw %struct.RString, ptr %4, i32 0, i32 1
  %6 = load i64, ptr %5, align 8, !tbaa !23
  ret i64 %6
}

; Function Attrs: inlinehint nounwind sspstrong willreturn memory(read) uwtable
define internal i64 @rb_intern_const(ptr noundef nonnull %0) #2 {
  %2 = alloca ptr, align 8
  %3 = alloca i64, align 8
  store ptr %0, ptr %2, align 8, !tbaa !10
  call void @llvm.lifetime.start.p0(i64 8, ptr %3) #21
  %4 = load ptr, ptr %2, align 8, !tbaa !10
  %5 = call i64 @strlen(ptr noundef %4) #22
  store i64 %5, ptr %3, align 8, !tbaa !6
  %6 = load ptr, ptr %2, align 8, !tbaa !10
  %7 = load i64, ptr %3, align 8, !tbaa !6
  %8 = call i64 @rb_intern2(ptr noundef %6, i64 noundef %7)
  call void @llvm.lifetime.end.p0(i64 8, ptr %3) #21
  ret i64 %8
}

; Function Attrs: nounwind sspstrong uwtable
define internal i64 @sec_fraction(i64 noundef %0) #0 {
  %2 = alloca i64, align 8
  %3 = alloca i64, align 8
  store i64 %0, ptr %2, align 8, !tbaa !6
  %4 = load i64, ptr %2, align 8, !tbaa !6
  %5 = call i64 @rb_str_to_inum(i64 noundef %4, i32 noundef 10, i32 noundef 0)
  %6 = call i64 @rbimpl_intern_const(ptr noundef @sec_fraction.rbimpl_id, ptr noundef @.str.50) #25
  store i64 %6, ptr %3, align 8, !tbaa !6
  %7 = load i64, ptr %3, align 8, !tbaa !6
  %8 = load i64, ptr %2, align 8, !tbaa !6
  %9 = call i64 @RSTRING_LEN(i64 noundef %8) #22
  %10 = call i64 @rb_long2num_inline(i64 noundef %9)
  %11 = call i64 (i64, i64, i32, ...) @rb_funcall(i64 noundef 21, i64 noundef %7, i32 noundef 1, i64 noundef %10)
  %12 = call i64 @rb_rational_new(i64 noundef %5, i64 noundef %11)
  ret i64 %12
}

; Function Attrs: inlinehint nounwind sspstrong willreturn memory(none) uwtable
define internal zeroext i1 @RB_NIL_P(i64 noundef %0) #4 {
  %2 = alloca i64, align 8
  store i64 %0, ptr %2, align 8, !tbaa !6
  %3 = load i64, ptr %2, align 8, !tbaa !6
  %4 = icmp eq i64 %3, 4
  ret i1 %4
}

; Function Attrs: inlinehint nounwind sspstrong memory(argmem: readwrite, inaccessiblemem: readwrite) uwtable
define internal i64 @rbimpl_intern_const(ptr noundef nonnull %0, ptr noundef nonnull %1) #7 {
  %3 = alloca ptr, align 8
  %4 = alloca ptr, align 8
  store ptr %0, ptr %3, align 8, !tbaa !20
  store ptr %1, ptr %4, align 8, !tbaa !10
  br label %5

5:                                                ; preds = %10, %2
  %6 = load ptr, ptr %3, align 8, !tbaa !20
  %7 = load i64, ptr %6, align 8, !tbaa !6
  %8 = icmp ne i64 %7, 0
  %9 = xor i1 %8, true
  br i1 %9, label %10, label %14

10:                                               ; preds = %5
  %11 = load ptr, ptr %4, align 8, !tbaa !10
  %12 = call i64 @rb_intern_const(ptr noundef %11) #22
  %13 = load ptr, ptr %3, align 8, !tbaa !20
  store i64 %12, ptr %13, align 8, !tbaa !6
  br label %5, !llvm.loop !35

14:                                               ; preds = %5
  %15 = load ptr, ptr %3, align 8, !tbaa !20
  %16 = load i64, ptr %15, align 8, !tbaa !6
  ret i64 %16
}

; Function Attrs: nounwind sspstrong uwtable
define internal i32 @iso8601_ext_time_cb(i64 noundef %0, i64 noundef %1) #0 {
  %3 = alloca i64, align 8
  %4 = alloca i64, align 8
  %5 = alloca [6 x i64], align 16
  %6 = alloca i32, align 4
  %7 = alloca i64, align 8
  %8 = alloca i64, align 8
  %9 = alloca i64, align 8
  %10 = alloca i64, align 8
  %11 = alloca i64, align 8
  %12 = alloca i64, align 8
  store i64 %0, ptr %3, align 8, !tbaa !6
  store i64 %1, ptr %4, align 8, !tbaa !6
  call void @llvm.lifetime.start.p0(i64 48, ptr %5) #21
  call void @llvm.lifetime.start.p0(i64 4, ptr %6) #21
  %13 = getelementptr inbounds [6 x i64], ptr %5, i64 0, i64 0
  store i64 4, ptr %13, align 16, !tbaa !6
  store i32 1, ptr %6, align 4, !tbaa !13
  br label %14

14:                                               ; preds = %24, %2
  %15 = load i32, ptr %6, align 4, !tbaa !13
  %16 = icmp sle i32 %15, 5
  br i1 %16, label %17, label %27

17:                                               ; preds = %14
  %18 = load i32, ptr %6, align 4, !tbaa !13
  %19 = load i64, ptr %3, align 8, !tbaa !6
  %20 = call i64 @rb_reg_nth_match(i32 noundef %18, i64 noundef %19)
  %21 = load i32, ptr %6, align 4, !tbaa !13
  %22 = sext i32 %21 to i64
  %23 = getelementptr inbounds [6 x i64], ptr %5, i64 0, i64 %22
  store i64 %20, ptr %23, align 8, !tbaa !6
  br label %24

24:                                               ; preds = %17
  %25 = load i32, ptr %6, align 4, !tbaa !13
  %26 = add nsw i32 %25, 1
  store i32 %26, ptr %6, align 4, !tbaa !13
  br label %14, !llvm.loop !59

27:                                               ; preds = %14
  call void @llvm.lifetime.end.p0(i64 4, ptr %6) #21
  %28 = load i64, ptr %4, align 8, !tbaa !6
  %29 = call i64 @rbimpl_intern_const(ptr noundef @iso8601_ext_time_cb.rbimpl_id, ptr noundef @.str.52) #25
  store i64 %29, ptr %7, align 8, !tbaa !6
  %30 = load i64, ptr %7, align 8, !tbaa !6
  %31 = call i64 @rb_id2sym(i64 noundef %30)
  %32 = getelementptr inbounds [6 x i64], ptr %5, i64 0, i64 1
  %33 = load i64, ptr %32, align 8, !tbaa !6
  %34 = call i64 @rb_str_to_inum(i64 noundef %33, i32 noundef 10, i32 noundef 0)
  %35 = call i64 @rb_hash_aset(i64 noundef %28, i64 noundef %31, i64 noundef %34)
  %36 = load i64, ptr %4, align 8, !tbaa !6
  %37 = call i64 @rbimpl_intern_const(ptr noundef @iso8601_ext_time_cb.rbimpl_id.171, ptr noundef @.str.54) #25
  store i64 %37, ptr %8, align 8, !tbaa !6
  %38 = load i64, ptr %8, align 8, !tbaa !6
  %39 = call i64 @rb_id2sym(i64 noundef %38)
  %40 = getelementptr inbounds [6 x i64], ptr %5, i64 0, i64 2
  %41 = load i64, ptr %40, align 16, !tbaa !6
  %42 = call i64 @rb_str_to_inum(i64 noundef %41, i32 noundef 10, i32 noundef 0)
  %43 = call i64 @rb_hash_aset(i64 noundef %36, i64 noundef %39, i64 noundef %42)
  %44 = getelementptr inbounds [6 x i64], ptr %5, i64 0, i64 3
  %45 = load i64, ptr %44, align 8, !tbaa !6
  %46 = call zeroext i1 @RB_NIL_P(i64 noundef %45) #23
  br i1 %46, label %56, label %47

47:                                               ; preds = %27
  %48 = load i64, ptr %4, align 8, !tbaa !6
  %49 = call i64 @rbimpl_intern_const(ptr noundef @iso8601_ext_time_cb.rbimpl_id.172, ptr noundef @.str.56) #25
  store i64 %49, ptr %9, align 8, !tbaa !6
  %50 = load i64, ptr %9, align 8, !tbaa !6
  %51 = call i64 @rb_id2sym(i64 noundef %50)
  %52 = getelementptr inbounds [6 x i64], ptr %5, i64 0, i64 3
  %53 = load i64, ptr %52, align 8, !tbaa !6
  %54 = call i64 @rb_str_to_inum(i64 noundef %53, i32 noundef 10, i32 noundef 0)
  %55 = call i64 @rb_hash_aset(i64 noundef %48, i64 noundef %51, i64 noundef %54)
  br label %56

56:                                               ; preds = %47, %27
  %57 = getelementptr inbounds [6 x i64], ptr %5, i64 0, i64 4
  %58 = load i64, ptr %57, align 16, !tbaa !6
  %59 = call zeroext i1 @RB_NIL_P(i64 noundef %58) #23
  br i1 %59, label %69, label %60

60:                                               ; preds = %56
  %61 = load i64, ptr %4, align 8, !tbaa !6
  %62 = call i64 @rbimpl_intern_const(ptr noundef @iso8601_ext_time_cb.rbimpl_id.173, ptr noundef @.str.58) #25
  store i64 %62, ptr %10, align 8, !tbaa !6
  %63 = load i64, ptr %10, align 8, !tbaa !6
  %64 = call i64 @rb_id2sym(i64 noundef %63)
  %65 = getelementptr inbounds [6 x i64], ptr %5, i64 0, i64 4
  %66 = load i64, ptr %65, align 16, !tbaa !6
  %67 = call i64 @sec_fraction(i64 noundef %66)
  %68 = call i64 @rb_hash_aset(i64 noundef %61, i64 noundef %64, i64 noundef %67)
  br label %69

69:                                               ; preds = %60, %56
  %70 = getelementptr inbounds [6 x i64], ptr %5, i64 0, i64 5
  %71 = load i64, ptr %70, align 8, !tbaa !6
  %72 = call zeroext i1 @RB_NIL_P(i64 noundef %71) #23
  br i1 %72, label %89, label %73

73:                                               ; preds = %69
  %74 = load i64, ptr %4, align 8, !tbaa !6
  %75 = call i64 @rbimpl_intern_const(ptr noundef @iso8601_ext_time_cb.rbimpl_id.174, ptr noundef @.str.37) #25
  store i64 %75, ptr %11, align 8, !tbaa !6
  %76 = load i64, ptr %11, align 8, !tbaa !6
  %77 = call i64 @rb_id2sym(i64 noundef %76)
  %78 = getelementptr inbounds [6 x i64], ptr %5, i64 0, i64 5
  %79 = load i64, ptr %78, align 8, !tbaa !6
  %80 = call i64 @rb_hash_aset(i64 noundef %74, i64 noundef %77, i64 noundef %79)
  %81 = load i64, ptr %4, align 8, !tbaa !6
  %82 = call i64 @rbimpl_intern_const(ptr noundef @iso8601_ext_time_cb.rbimpl_id.175, ptr noundef @.str.39) #25
  store i64 %82, ptr %12, align 8, !tbaa !6
  %83 = load i64, ptr %12, align 8, !tbaa !6
  %84 = call i64 @rb_id2sym(i64 noundef %83)
  %85 = getelementptr inbounds [6 x i64], ptr %5, i64 0, i64 5
  %86 = load i64, ptr %85, align 8, !tbaa !6
  %87 = call i64 @date_zone_to_diff(i64 noundef %86)
  %88 = call i64 @rb_hash_aset(i64 noundef %81, i64 noundef %84, i64 noundef %87)
  br label %89

89:                                               ; preds = %73, %69
  call void @llvm.lifetime.end.p0(i64 48, ptr %5) #21
  ret i32 1
}