; Function Attrs: nounwind sspstrong uwtable
define internal fastcc void @iso8601_ext_time_cb(i64 noundef %0, i64 noundef %1) unnamed_addr #0 {
  %3 = alloca [6 x i64], align 16
  call void @llvm.lifetime.start.p0(i64 48, ptr nonnull %3) #13
  br label %4

4:                                                ; preds = %2, %4
  %indvars.iv = phi i64 [ 1, %2 ], [ %indvars.iv.next, %4 ]
  %5 = trunc nuw nsw i64 %indvars.iv to i32
  %6 = tail call i64 @rb_reg_nth_match(i32 noundef %5, i64 noundef %0) #13
  %7 = getelementptr inbounds nuw [6 x i64], ptr %3, i64 0, i64 %indvars.iv
  store i64 %6, ptr %7, align 8, !tbaa !6
  %indvars.iv.next = add nuw nsw i64 %indvars.iv, 1
  %exitcond.not = icmp eq i64 %indvars.iv.next, 6
  br i1 %exitcond.not, label %8, label %4, !llvm.loop !225

8:                                                ; preds = %4
  %.pr.i = load i64, ptr @iso8601_ext_time_cb.rbimpl_id, align 8, !tbaa !6
  %.not4.i = icmp eq i64 %.pr.i, 0
  br i1 %.not4.i, label %.lr.ph.i, label %rbimpl_intern_const.exit

.lr.ph.i:                                         ; preds = %8, %.lr.ph.i
  %9 = tail call i64 @rb_intern2(ptr noundef nonnull @.str.52, i64 noundef 4) #13
  store i64 %9, ptr @iso8601_ext_time_cb.rbimpl_id, align 8, !tbaa !6
  %.not.i = icmp eq i64 %9, 0
  br i1 %.not.i, label %.lr.ph.i, label %rbimpl_intern_const.exit, !llvm.loop !36

rbimpl_intern_const.exit:                         ; preds = %.lr.ph.i, %8
  %.lcssa.i = phi i64 [ %.pr.i, %8 ], [ %9, %.lr.ph.i ]
  %10 = tail call i64 @rb_id2sym(i64 noundef %.lcssa.i) #13
  %11 = getelementptr inbounds nuw i8, ptr %3, i64 8
  %12 = load i64, ptr %11, align 8, !tbaa !6
  %13 = tail call i64 @rb_str_to_inum(i64 noundef %12, i32 noundef 10, i32 noundef 0) #13
  %14 = tail call i64 @rb_hash_aset(i64 noundef %1, i64 noundef %10, i64 noundef %13) #13
  %.pr.i17 = load i64, ptr @iso8601_ext_time_cb.rbimpl_id.171, align 8, !tbaa !6
  %.not4.i18 = icmp eq i64 %.pr.i17, 0
  br i1 %.not4.i18, label %.lr.ph.i20, label %rbimpl_intern_const.exit22

.lr.ph.i20:                                       ; preds = %rbimpl_intern_const.exit, %.lr.ph.i20
  %15 = tail call i64 @rb_intern2(ptr noundef nonnull @.str.54, i64 noundef 3) #13
  store i64 %15, ptr @iso8601_ext_time_cb.rbimpl_id.171, align 8, !tbaa !6
  %.not.i21 = icmp eq i64 %15, 0
  br i1 %.not.i21, label %.lr.ph.i20, label %rbimpl_intern_const.exit22, !llvm.loop !36

rbimpl_intern_const.exit22:                       ; preds = %.lr.ph.i20, %rbimpl_intern_const.exit
  %.lcssa.i19 = phi i64 [ %.pr.i17, %rbimpl_intern_const.exit ], [ %15, %.lr.ph.i20 ]
  %16 = tail call i64 @rb_id2sym(i64 noundef %.lcssa.i19) #13
  %17 = getelementptr inbounds nuw i8, ptr %3, i64 16
  %18 = load i64, ptr %17, align 16, !tbaa !6
  %19 = tail call i64 @rb_str_to_inum(i64 noundef %18, i32 noundef 10, i32 noundef 0) #13
  %20 = tail call i64 @rb_hash_aset(i64 noundef %1, i64 noundef %16, i64 noundef %19) #13
  %21 = getelementptr inbounds nuw i8, ptr %3, i64 24
  %22 = load i64, ptr %21, align 8, !tbaa !6
  %23 = icmp eq i64 %22, 4
  br i1 %23, label %29, label %24

24:                                               ; preds = %rbimpl_intern_const.exit22
  %.pr.i23 = load i64, ptr @iso8601_ext_time_cb.rbimpl_id.172, align 8, !tbaa !6
  %.not4.i24 = icmp eq i64 %.pr.i23, 0
  br i1 %.not4.i24, label %.lr.ph.i26, label %rbimpl_intern_const.exit28

.lr.ph.i26:                                       ; preds = %24, %.lr.ph.i26
  %25 = tail call i64 @rb_intern2(ptr noundef nonnull @.str.56, i64 noundef 3) #13
  store i64 %25, ptr @iso8601_ext_time_cb.rbimpl_id.172, align 8, !tbaa !6
  %.not.i27 = icmp eq i64 %25, 0
  br i1 %.not.i27, label %.lr.ph.i26, label %rbimpl_intern_const.exit28, !llvm.loop !36

rbimpl_intern_const.exit28:                       ; preds = %.lr.ph.i26, %24
  %.lcssa.i25 = phi i64 [ %.pr.i23, %24 ], [ %25, %.lr.ph.i26 ]
  %26 = tail call i64 @rb_id2sym(i64 noundef %.lcssa.i25) #13
  %27 = tail call i64 @rb_str_to_inum(i64 noundef %22, i32 noundef 10, i32 noundef 0) #13
  %28 = tail call i64 @rb_hash_aset(i64 noundef %1, i64 noundef %26, i64 noundef %27) #13
  br label %29

29:                                               ; preds = %rbimpl_intern_const.exit28, %rbimpl_intern_const.exit22
  %30 = getelementptr inbounds nuw i8, ptr %3, i64 32
  %31 = load i64, ptr %30, align 16, !tbaa !6
  %32 = icmp eq i64 %31, 4
  br i1 %32, label %50, label %33

33:                                               ; preds = %29
  %.pr.i29 = load i64, ptr @iso8601_ext_time_cb.rbimpl_id.173, align 8, !tbaa !6
  %.not4.i30 = icmp eq i64 %.pr.i29, 0
  br i1 %.not4.i30, label %.lr.ph.i32, label %rbimpl_intern_const.exit34

.lr.ph.i32:                                       ; preds = %33, %.lr.ph.i32
  %34 = tail call i64 @rb_intern2(ptr noundef nonnull @.str.58, i64 noundef 12) #13
  store i64 %34, ptr @iso8601_ext_time_cb.rbimpl_id.173, align 8, !tbaa !6
  %.not.i33 = icmp eq i64 %34, 0
  br i1 %.not.i33, label %.lr.ph.i32, label %rbimpl_intern_const.exit34, !llvm.loop !36

rbimpl_intern_const.exit34:                       ; preds = %.lr.ph.i32, %33
  %.lcssa.i31 = phi i64 [ %.pr.i29, %33 ], [ %34, %.lr.ph.i32 ]
  %35 = tail call i64 @rb_id2sym(i64 noundef %.lcssa.i31) #13
  %36 = tail call i64 @rb_str_to_inum(i64 noundef %31, i32 noundef 10, i32 noundef 0) #13
  %.pr.i.i = load i64, ptr @sec_fraction.rbimpl_id, align 8, !tbaa !6
  %.not4.i.i = icmp eq i64 %.pr.i.i, 0
  br i1 %.not4.i.i, label %.lr.ph.i.i, label %rbimpl_intern_const.exit.i

.lr.ph.i.i:                                       ; preds = %rbimpl_intern_const.exit34, %.lr.ph.i.i
  %37 = tail call i64 @rb_intern2(ptr noundef nonnull @.str.50, i64 noundef 2) #13
  store i64 %37, ptr @sec_fraction.rbimpl_id, align 8, !tbaa !6
  %.not.i.i = icmp eq i64 %37, 0
  br i1 %.not.i.i, label %.lr.ph.i.i, label %rbimpl_intern_const.exit.i, !llvm.loop !36

rbimpl_intern_const.exit.i:                       ; preds = %.lr.ph.i.i, %rbimpl_intern_const.exit34
  %.lcssa.i.i = phi i64 [ %.pr.i.i, %rbimpl_intern_const.exit34 ], [ %37, %.lr.ph.i.i ]
  %38 = inttoptr i64 %31 to ptr
  %39 = getelementptr inbounds nuw i8, ptr %38, i64 16
  %40 = load i64, ptr %39, align 8, !tbaa !10
  %41 = add i64 %40, 4611686018427387904
  %or.cond.i.i = icmp sgt i64 %41, -1
  br i1 %or.cond.i.i, label %42, label %45

42:                                               ; preds = %rbimpl_intern_const.exit.i
  %43 = shl nsw i64 %40, 1
  %44 = or disjoint i64 %43, 1
  br label %sec_fraction.exit

45:                                               ; preds = %rbimpl_intern_const.exit.i
  %46 = tail call i64 @rb_int2big(i64 noundef %40) #13
  br label %sec_fraction.exit

sec_fraction.exit:                                ; preds = %42, %45
  %.0.i.i = phi i64 [ %44, %42 ], [ %46, %45 ]
  %47 = tail call i64 (i64, i64, i32, ...) @rb_funcall(i64 noundef 21, i64 noundef %.lcssa.i.i, i32 noundef 1, i64 noundef %.0.i.i) #13
  %48 = tail call i64 @rb_rational_new(i64 noundef %36, i64 noundef %47) #13
  %49 = tail call i64 @rb_hash_aset(i64 noundef %1, i64 noundef %35, i64 noundef %48) #13
  br label %50

50:                                               ; preds = %sec_fraction.exit, %29
  %51 = getelementptr inbounds nuw i8, ptr %3, i64 40
  %52 = load i64, ptr %51, align 8, !tbaa !6
  %53 = icmp eq i64 %52, 4
  br i1 %53, label %62, label %54

54:                                               ; preds = %50
  %.pr.i35 = load i64, ptr @iso8601_ext_time_cb.rbimpl_id.174, align 8, !tbaa !6
  %.not4.i36 = icmp eq i64 %.pr.i35, 0
  br i1 %.not4.i36, label %.lr.ph.i38, label %rbimpl_intern_const.exit40

.lr.ph.i38:                                       ; preds = %54, %.lr.ph.i38
  %55 = tail call i64 @rb_intern2(ptr noundef nonnull @.str.37, i64 noundef 4) #13
  store i64 %55, ptr @iso8601_ext_time_cb.rbimpl_id.174, align 8, !tbaa !6
  %.not.i39 = icmp eq i64 %55, 0
  br i1 %.not.i39, label %.lr.ph.i38, label %rbimpl_intern_const.exit40, !llvm.loop !36

rbimpl_intern_const.exit40:                       ; preds = %.lr.ph.i38, %54
  %.lcssa.i37 = phi i64 [ %.pr.i35, %54 ], [ %55, %.lr.ph.i38 ]
  %56 = tail call i64 @rb_id2sym(i64 noundef %.lcssa.i37) #13
  %57 = tail call i64 @rb_hash_aset(i64 noundef %1, i64 noundef %56, i64 noundef %52) #13
  %.pr.i41 = load i64, ptr @iso8601_ext_time_cb.rbimpl_id.175, align 8, !tbaa !6
  %.not4.i42 = icmp eq i64 %.pr.i41, 0
  br i1 %.not4.i42, label %.lr.ph.i44, label %rbimpl_intern_const.exit46

.lr.ph.i44:                                       ; preds = %rbimpl_intern_const.exit40, %.lr.ph.i44
  %58 = tail call i64 @rb_intern2(ptr noundef nonnull @.str.39, i64 noundef 6) #13
  store i64 %58, ptr @iso8601_ext_time_cb.rbimpl_id.175, align 8, !tbaa !6
  %.not.i45 = icmp eq i64 %58, 0
  br i1 %.not.i45, label %.lr.ph.i44, label %rbimpl_intern_const.exit46, !llvm.loop !36

rbimpl_intern_const.exit46:                       ; preds = %.lr.ph.i44, %rbimpl_intern_const.exit40
  %.lcssa.i43 = phi i64 [ %.pr.i41, %rbimpl_intern_const.exit40 ], [ %58, %.lr.ph.i44 ]
  %59 = tail call i64 @rb_id2sym(i64 noundef %.lcssa.i43) #13
  %60 = tail call i64 @date_zone_to_diff(i64 noundef %52)
  %61 = tail call i64 @rb_hash_aset(i64 noundef %1, i64 noundef %59, i64 noundef %60) #13
  br label %62

62:                                               ; preds = %rbimpl_intern_const.exit46, %50
  call void @llvm.lifetime.end.p0(i64 48, ptr nonnull %3) #13
  ret void
}